; Function Attrs: mustprogress uwtable
define dso_local noundef nonnull align 8 dereferenceable(37) ptr @_ZN5vcpkg13XmlSerializer22start_complex_open_tagENS_13StringLiteralE(ptr noundef nonnull returned align 8 dereferenceable(37) %0, ptr %1, i64 %2) local_unnamed_addr #0 align 2 {
  %4 = alloca %"struct.vcpkg::StringLiteral", align 8
  store ptr %1, ptr %4, align 8
  %5 = getelementptr inbounds nuw i8, ptr %4, i64 8
  store i64 %2, ptr %5, align 8
  %6 = getelementptr inbounds nuw i8, ptr %0, i64 36
  %7 = load i8, ptr %6, align 4, !tbaa !12, !range !16, !noundef !17
  %8 = trunc nuw i8 %7 to i1
  br i1 %8, label %9, label %_ZN5vcpkg13XmlSerializer19emit_pending_indentEv.exit

9:                                                ; preds = %3
  store i8 0, ptr %6, align 4, !tbaa !12
  %10 = getelementptr inbounds nuw i8, ptr %0, i64 32
  %11 = load i32, ptr %10, align 8, !tbaa !18
  %12 = sext i32 %11 to i64
  %13 = getelementptr inbounds nuw i8, ptr %0, i64 8
  %14 = load i64, ptr %13, align 8, !tbaa !4
  %15 = tail call noundef nonnull align 8 dereferenceable(32) ptr @_ZNSt7__cxx1112basic_stringIcSt11char_traitsIcESaIcEE14_M_replace_auxEmmmc(ptr noundef nonnull align 8 dereferenceable(37) %0, i64 noundef %14, i64 noundef 0, i64 noundef %12, i8 noundef signext 32)
  br label %_ZN5vcpkg13XmlSerializer19emit_pending_indentEv.exit

_ZN5vcpkg13XmlSerializer19emit_pending_indentEv.exit: ; preds = %3, %9
  tail call void @_ZN5vcpkg7Strings7details15append_internalERNSt7__cxx1112basic_stringIcSt11char_traitsIcESaIcEEEc(ptr noundef nonnull align 8 dereferenceable(32) %0, i8 noundef signext 60)
  call void @_ZNK5vcpkg10StringView9to_stringERNSt7__cxx1112basic_stringIcSt11char_traitsIcESaIcEEE(ptr noundef nonnull align 8 dereferenceable(16) %4, ptr noundef nonnull align 8 dereferenceable(32) %0)
  %16 = getelementptr inbounds nuw i8, ptr %0, i64 32
  %17 = load i32, ptr %16, align 8, !tbaa !18
  %18 = add nsw i32 %17, 2
  store i32 %18, ptr %16, align 8, !tbaa !18
  ret ptr %0
}